Certificate:
    Data:
        Version: 3 (0x2)
        Serial Number:
            a0:6c:85:ef:c0:c0:ff:5d:6f:ab:8e:48:82:d2:bb:c2
        Signature Algorithm: sha256WithRSAEncryption
        Issuer: CN=Pantavisor Dev CA
        Validity
            Not Before: Jun 12 10:00:18 2022 GMT
            Not After : Sep 14 10:00:18 2024 GMT
        Subject: CN=pv-developer-01
        Subject Public Key Info:
            Public Key Algorithm: rsaEncryption
                RSA Public-Key: (2048 bit)
                Modulus:
                    00:bf:82:24:2f:9d:f4:5c:56:36:39:4c:61:a2:8f:
                    5e:42:27:ee:36:54:05:39:ff:25:1a:76:74:45:41:
                    49:a1:93:43:43:98:86:12:2a:b2:c4:cd:0a:8b:d5:
                    f2:40:95:16:5f:a0:f3:59:cc:91:51:53:91:20:82:
                    a8:68:4f:ab:7c:fc:1a:1e:e0:60:35:3e:16:71:db:
                    05:df:3e:78:95:77:7d:30:29:6e:83:fc:fd:ca:51:
                    fe:4d:22:8f:68:98:e8:34:53:f6:31:60:bf:27:2b:
                    ae:d6:59:e7:aa:76:f9:1a:c4:53:e5:75:ee:14:ff:
                    35:de:94:fd:83:f9:ff:15:a5:65:de:7c:f0:2d:1b:
                    7d:7e:11:bc:93:b7:12:f7:64:6b:19:fe:06:66:30:
                    6f:dc:f2:8d:16:b5:7c:a6:83:5f:ba:1d:bd:5e:b9:
                    aa:d1:5b:32:f9:38:ce:e4:96:8e:77:aa:39:12:ac:
                    45:7a:92:4d:b3:e2:a6:7f:51:8b:7f:df:da:fa:4e:
                    c1:ed:a0:f6:02:02:5c:f9:a2:4e:16:07:83:57:79:
                    8f:3c:32:2a:fe:79:0e:c6:89:9a:a7:89:2f:78:60:
                    dc:9c:b2:e9:f3:a3:94:74:f0:59:f9:e7:1d:cb:17:
                    e1:40:ec:de:ae:7f:2c:8f:cf:38:e6:78:5f:65:93:
                    85:0b
                Exponent: 65537 (0x10001)
        X509v3 extensions:
            X509v3 Basic Constraints: 
                CA:FALSE
            X509v3 Subject Key Identifier: 
                D5:ED:F1:66:11:D1:04:9C:F6:24:92:72:47:5E:9F:D8:B1:B6:D8:63
            X509v3 Authority Key Identifier: 
                keyid:59:8B:90:FA:92:82:E0:86:E9:98:29:AF:13:F8:F8:21:EA:91:81:3D
                DirName:/CN=Pantavisor Dev CA
                serial:63:71:06:74:7A:2A:AA:B4:19:3C:D1:E0:63:20:04:93:49:C5:89:CA

            X509v3 Extended Key Usage: 
                Code Signing
            X509v3 Key Usage: 
                Digital Signature
    Signature Algorithm: sha256WithRSAEncryption
         15:b4:50:2c:c7:e6:6e:e4:ab:84:38:6f:f8:f3:40:ad:cd:3f:
         2f:4f:17:ca:7d:96:1f:0a:b3:97:6f:1c:80:10:6c:b9:8c:2b:
         21:5b:5d:08:ab:9d:7a:9e:79:e1:d7:f7:e3:13:13:a2:fb:98:
         95:19:e8:46:68:6d:ed:63:88:9e:93:1b:7a:6b:ab:cd:d6:ad:
         01:c4:84:13:d6:63:de:5a:95:d3:c0:9d:70:71:1c:e2:b3:f6:
         8f:ea:6b:7f:9e:51:85:ee:84:c6:7e:3c:f6:d8:75:c9:99:a1:
         ef:36:03:be:c9:56:c1:b5:24:57:1e:88:39:57:57:36:fc:ff:
         e8:ee:9a:0c:74:53:7b:17:5b:b6:80:af:56:56:68:ce:15:8d:
         92:ed:95:fc:01:38:9f:d0:08:cf:25:b5:16:91:d8:ec:fb:99:
         38:df:53:9d:d9:5f:74:3c:b1:50:13:19:e5:04:84:69:52:cc:
         71:d3:07:8f:e8:32:01:6f:c1:a8:4e:89:f4:b2:da:74:4c:13:
         f0:32:fc:28:cb:df:f1:f6:d4:4d:06:0e:9f:e2:06:80:20:3e:
         8e:ff:02:13:1d:13:d8:85:d9:68:2d:70:0c:04:50:4a:6f:8e:
         f5:88:e1:89:3b:61:b9:b7:dc:f2:2d:4e:19:7b:08:23:5c:a3:
         8b:8d:3b:da
-----BEGIN CERTIFICATE-----
MIIDajCCAlKgAwIBAgIRAKBshe/AwP9db6uOSILSu8IwDQYJKoZIhvcNAQELBQAw
HDEaMBgGA1UEAwwRUGFudGF2aXNvciBEZXYgQ0EwHhcNMjIwNjEyMTAwMDE4WhcN
MjQwOTE0MTAwMDE4WjAaMRgwFgYDVQQDDA9wdi1kZXZlbG9wZXItMDEwggEiMA0G
CSqGSIb3DQEBAQUAA4IBDwAwggEKAoIBAQC/giQvnfRcVjY5TGGij15CJ+42VAU5
/yUadnRFQUmhk0NDmIYSKrLEzQqL1fJAlRZfoPNZzJFRU5EggqhoT6t8/Boe4GA1
PhZx2wXfPniVd30wKW6D/P3KUf5NIo9omOg0U/YxYL8nK67WWeeqdvkaxFPlde4U
/zXelP2D+f8VpWXefPAtG31+EbyTtxL3ZGsZ/gZmMG/c8o0WtXymg1+6Hb1euarR
WzL5OM7klo53qjkSrEV6kk2z4qZ/UYt/39r6TsHtoPYCAlz5ok4WB4NXeY88Mir+
eQ7GiZqniS94YNycsunzo5R08Fn55x3LF+FA7N6ufyyPzzjmeF9lk4ULAgMBAAGj
gagwgaUwCQYDVR0TBAIwADAdBgNVHQ4EFgQU1e3xZhHRBJz2JJJyR16f2LG22GMw
VwYDVR0jBFAwToAUWYuQ+pKC4IbpmCmvE/j4IeqRgT2hIKQeMBwxGjAYBgNVBAMM
EVBhbnRhdmlzb3IgRGV2IENBghRjcQZ0eiqqtBk80eBjIASTScWJyjATBgNVHSUE
DDAKBggrBgEFBQcDAzALBgNVHQ8EBAMCB4AwDQYJKoZIhvcNAQELBQADggEBABW0
UCzH5m7kq4Q4b/jzQK3NPy9PF8p9lh8Ks5dvHIAQbLmMKyFbXQirnXqeeeHX9+MT
E6L7mJUZ6EZobe1jiJ6TG3prq83WrQHEhBPWY95aldPAnXBxHOKz9o/qa3+eUYXu
hMZ+PPbYdcmZoe82A77JVsG1JFceiDlXVzb8/+jumgx0U3sXW7aAr1ZWaM4VjZLt
lfwBOJ/QCM8ltRaR2Oz7mTjfU53ZX3Q8sVATGeUEhGlSzHHTB4/oMgFvwahOifSy
2nRME/Ay/CjL3/H21E0GDp/iBoAgPo7/AhMdE9iF2WgtcAwEUEpvjvWI4Yk7Ybm3
3PItThl7CCNco4uNO9o=
-----END CERTIFICATE-----
